target datalayout = "e-m:e-p270:32:32-p271:32:32-p272:64:64-i64:64-i128:128-f80:128-n8:16:32:64-S128"
target triple = "x86_64-pc-linux-gnu"

%struct.AVRational = type { i32, i32 }
%struct.SyncQueue = type { i32, ptr, i32, i32, i32, i64, ptr, i32, i32, i64 }
%struct.SyncQueueStream = type { ptr, %struct.AVRational, i64, i64, i32, i32, i64, i64, i64, i32 }

; Function Attrs: nounwind uwtable
define void @sq_free(ptr noundef %0) #0 {
  %2 = alloca ptr, align 8
  %3 = alloca ptr, align 8
  %4 = alloca i32, align 4
  %5 = alloca i32, align 4
  store ptr %0, ptr %2, align 8, !tbaa !72
  call void @llvm.lifetime.start.p0(i64 8, ptr %3) #8
  %6 = load ptr, ptr %2, align 8, !tbaa !72
  %7 = load ptr, ptr %6, align 8, !tbaa !4
  store ptr %7, ptr %3, align 8, !tbaa !4
  %8 = load ptr, ptr %3, align 8, !tbaa !4
  %9 = icmp ne ptr %8, null
  br i1 %9, label %11, label %10

10:                                               ; preds = %1
  store i32 1, ptr %4, align 4
  br label %34

11:                                               ; preds = %1
  call void @llvm.lifetime.start.p0(i64 4, ptr %5) #8
  store i32 0, ptr %5, align 4, !tbaa !9
  br label %12

12:                                               ; preds = %27, %11
  %13 = load i32, ptr %5, align 4, !tbaa !9
  %14 = load ptr, ptr %3, align 8, !tbaa !4
  %15 = getelementptr inbounds nuw %struct.SyncQueue, ptr %14, i32 0, i32 7
  %16 = load i32, ptr %15, align 8, !tbaa !11
  %17 = icmp ult i32 %13, %16
  br i1 %17, label %19, label %18

18:                                               ; preds = %12
  store i32 2, ptr %4, align 4
  call void @llvm.lifetime.end.p0(i64 4, ptr %5) #8
  br label %30

19:                                               ; preds = %12
  %20 = load ptr, ptr %3, align 8, !tbaa !4
  %21 = getelementptr inbounds nuw %struct.SyncQueue, ptr %20, i32 0, i32 6
  %22 = load ptr, ptr %21, align 8, !tbaa !15
  %23 = load i32, ptr %5, align 4, !tbaa !9
  %24 = zext i32 %23 to i64
  %25 = getelementptr inbounds nuw %struct.SyncQueueStream, ptr %22, i64 %24
  %26 = getelementptr inbounds nuw %struct.SyncQueueStream, ptr %25, i32 0, i32 0
  call void @av_container_fifo_free(ptr noundef %26)
  br label %27

27:                                               ; preds = %19
  %28 = load i32, ptr %5, align 4, !tbaa !9
  %29 = add i32 %28, 1
  store i32 %29, ptr %5, align 4, !tbaa !9
  br label %12, !llvm.loop !74

30:                                               ; preds = %18
  %31 = load ptr, ptr %3, align 8, !tbaa !4
  %32 = getelementptr inbounds nuw %struct.SyncQueue, ptr %31, i32 0, i32 6
  call void @av_freep(ptr noundef %32)
  %33 = load ptr, ptr %2, align 8, !tbaa !72
  call void @av_freep(ptr noundef %33)
  store i32 0, ptr %4, align 4
  br label %34

34:                                               ; preds = %30, %10
  call void @llvm.lifetime.end.p0(i64 8, ptr %3) #8
  %35 = load i32, ptr %4, align 4
  switch i32 %35, label %37 [
    i32 0, label %36
    i32 1, label %36
  ]

36:                                               ; preds = %34, %34
  ret void

37:                                               ; preds = %34
  unreachable
}