; Function Attrs: nounwind uwtable
define void @sq_free(ptr noundef %0) local_unnamed_addr #0 {
  %2 = load ptr, ptr %0, align 8, !tbaa !57
  %.not = icmp eq ptr %2, null
  br i1 %.not, label %13, label %.preheader

.preheader:                                       ; preds = %1
  %3 = getelementptr inbounds nuw i8, ptr %2, i64 48
  %4 = load i32, ptr %3, align 8, !tbaa !4
  %.not10 = icmp eq i32 %4, 0
  br i1 %.not10, label %._crit_edge, label %.lr.ph

.lr.ph:                                           ; preds = %.preheader
  %5 = getelementptr inbounds nuw i8, ptr %2, i64 40
  br label %7

._crit_edge:                                      ; preds = %7, %.preheader
  %6 = getelementptr inbounds nuw i8, ptr %2, i64 40
  tail call void @av_freep(ptr noundef nonnull %6) #7
  tail call void @av_freep(ptr noundef nonnull %0) #7
  br label %13

7:                                                ; preds = %.lr.ph, %7
  %indvars.iv = phi i64 [ 0, %.lr.ph ], [ %indvars.iv.next, %7 ]
  %8 = load ptr, ptr %5, align 8, !tbaa !12
  %9 = getelementptr inbounds nuw %struct.SyncQueueStream, ptr %8, i64 %indvars.iv
  tail call void @av_container_fifo_free(ptr noundef %9) #7
  %indvars.iv.next = add nuw nsw i64 %indvars.iv, 1
  %10 = load i32, ptr %3, align 8, !tbaa !4
  %11 = zext i32 %10 to i64
  %12 = icmp samesign ult i64 %indvars.iv.next, %11
  br i1 %12, label %7, label %._crit_edge, !llvm.loop !59

13:                                               ; preds = %1, %._crit_edge
  ret void
}